(dp0
S'Simulation'
p1
(dp2
S'default'
p3
(dp4
S'EE'
p5
(dp6
S'UncertaintyUp'
p7
F0.00095500832299311167
sS'cut'
p8
S'weight*(chargeProduct < 0  && abs(eta1)<2.4  && abs(eta2) < 2.4 && deltaR > 0.3  && pt1 > 20 && pt2 > 20 && p4.M()>20 && ht > 200 && runNr == 1)'
p9
sS'Denominator'
p10
F26553.4765625
sS'Efficiency'
p11
F0.97715893193128844
sS'Nominator'
p12
F25946.966796875
sS'UncertaintyDown'
p13
F0.00095500832299311167
ssS'MuMu'
p14
(dp15
g7
F0.00099997445598776213
sg8
g9
sg10
F31510.556640625
sg11
F0.9720140912597186
sg12
F30628.705078125
sg13
F0.00099997445598776213
ssS'EMu'
p16
(dp17
g7
F0.001028019162390259
sg8
g9
sg10
F8064.29296875
sg11
F0.95821592969392955
sg12
F7727.333984375
sg13
F0.001028019162390259
ssss.