(dp0
S'Simulation'
p1
(dp2
S'default'
p3
(dp4
S'EE'
p5
(dp6
S'UncertaintyUp'
p7
F0.001471004420757871
sS'cut'
p8
S'weight*(chargeProduct < 0  && abs(eta1)<2.4  && abs(eta2) < 2.4 && deltaR > 0.3  && pt1 > 20 && pt2 > 20 && p4.M()>20 && ht > 200 && 1.4<= TMath::Max(abs(eta1),abs(eta2)) && runNr == 1)'
p9
sS'Denominator'
p10
F9548.92578125
sS'Efficiency'
p11
F0.97989732156553933
sS'Nominator'
p12
F9356.966796875
sS'UncertaintyDown'
p13
F0.001471004420757871
ssS'MuMu'
p14
(dp15
g7
F0.001850864169439026
sg8
g9
sg10
F14201.7314453125
sg11
F0.95680867477852782
sg12
F13588.33984375
sg13
F0.001850864169439026
ssS'EMu'
p16
(dp17
g7
F0.0022168279862915252
sg8
g9
sg10
F2714.8974609375
sg11
F0.94634233855085603
sg12
F2569.222412109375
sg13
F0.0022168279862915252
ssss.