(dp0
S'Simulation'
p1
(dp2
S'default'
p3
(dp4
S'EE'
p5
(dp6
S'UncertaintyUp'
p7
F0.001627905686524933
sS'cut'
p8
S'weight*(chargeProduct < 0  && abs(eta1)<2.4  && abs(eta2) < 2.4 && deltaR > 0.3  && pt1 > 20 && pt2 > 20 && p4.M()>20 && ht > 200  && 1.6<=TMath::Max(abs(eta1),abs(eta2)) && abs(eta1) < 2.4 && abs(eta2) < 2.4 && ((abs(eta1) < 1.4 || abs(eta1) > 1.6) && (abs(eta2) < 1.4 || abs(eta2) > 1.6) ) && runNr == 1)'
p9
sS'Denominator'
p10
F7901.5966796875
sS'Efficiency'
p11
F0.9795769125479609
sS'Nominator'
p12
F7740.2216796875
sS'UncertaintyDown'
p13
F0.001627905686524933
ssS'MuMu'
p14
(dp15
g7
F0.00245416590753178
sg8
g9
sg10
F9421.5126953125
sg11
F0.9500496961481417
sg12
F8950.9052734375
sg13
F0.00245416590753178
ssS'EMu'
p16
(dp17
g7
F0.002330148556213496
sg8
g9
sg10
F2001.1083984375
sg11
F0.9496682746622356
sg12
F1900.38916015625
sg13
F0.002330148556213496
ssss.