(dp0
S'Simulation'
p1
(dp2
S'default'
p3
(dp4
S'EE'
p5
(dp6
S'UncertaintyUp'
p7
F0.0012412610198960783
sS'cut'
p8
S'weight*(chargeProduct < 0  && abs(eta1)<2.4  && abs(eta2) < 2.4 && deltaR > 0.3  && pt1 > 20 && pt2 > 20 && p4.M()>20 && ht > 200 && abs(eta1)<1.4  && abs(eta2) < 1.4 && runNr == 1)'
p9
sS'Denominator'
p10
F17004.90625
sS'Efficiency'
p11
F0.97561813502353179
sS'Nominator'
p12
F16590.294921875
sS'UncertaintyDown'
p13
F0.0012412610198960783
ssS'MuMu'
p14
(dp15
g7
F0.00099234866426611834
sg8
g9
sg10
F17309.51171875
sg11
F0.98448795877447259
sg12
F17041.005859375
sg13
F0.00099234866426611834
ssS'EMu'
p16
(dp17
g7
F0.0010591681628119298
sg8
g9
sg10
F5348.52734375
sg11
F0.96422195288860912
sg12
F5157.16748046875
sg13
F0.0010591681628119298
ssss.