(dp0
S'Simulation'
p1
(dp2
S'default'
p3
(dp4
S'EE'
p5
(dp6
S'UncertaintyUp'
p7
F0.0005994669897181337
sS'cut'
p8
S'weight*(chargeProduct < 0  && abs(eta1)<1.4  && abs(eta2) < 1.4 && deltaR > 0.3  && pt1 > 20 && pt2 > 20  && ht > 200  && runNr == 1)'
p9
sS'Denominator'
p10
F20284.166015625
sS'Efficiency'
p11
F0.9719958407366891
sS'Nominator'
p12
F19716.125
sS'UncertaintyDown'
p13
F0.0005994669897181337
ssS'MuMu'
p14
(dp15
g7
F0.0004295249142078905
sg8
g9
sg10
F21717.044921875
sg11
F0.9850117729566359
sg12
F21391.544921875
sg13
F0.0004295249142078905
ssS'EMu'
p16
(dp17
g7
F0.00045620452518879695
sg8
g9
sg10
F44589.484375
sg11
F0.9639971693157755
sg12
F42984.13671875
sg13
F0.00045620452518879695
ssss.