(dp0
S'Simulation'
p1
(dp2
S'default'
p3
(dp4
S'EE'
p5
(dp6
S'UncertaintyUp'
p7
F0.000992595467683044
sS'cut'
p8
S'weight*(chargeProduct < 0  && abs(eta1)<2.4  && abs(eta2) < 2.4 && deltaR > 0.3  && pt1 > 20 && pt2 > 20 && p4.M()>20 && ht > 200  && ((abs(eta1) < 1.4 || abs(eta1) > 1.6) && (abs(eta2) < 1.4 || abs(eta2) > 1.6) ) && runNr == 1)'
p9
sS'Denominator'
p10
F24906.328125
sS'Efficiency'
p11
F0.9768760919821456
sS'Nominator'
p12
F24330.396484375
sS'UncertaintyDown'
p13
F0.000992595467683044
ssS'MuMu'
p14
(dp15
g7
F0.0010831993645090687
sg8
g9
sg10
F26730.62109375
sg11
F0.9723527076201085
sg12
F25991.591796875
sg13
F0.0010831993645090687
ssS'EMu'
p16
(dp17
g7
F0.000999738934230554
sg8
g9
sg10
F7350.43505859375
sg11
F0.9602575873252613
sg12
F7058.31103515625
sg13
F0.000999738934230554
ssss.