(dp0
S'Run92'
p1
(dp2
S'default'
p3
(dp4
S'EE'
p5
(dp6
S'UncertaintyUp'
p7
F0.0080245071136071378
sS'cut'
p8
S'weight*(chargeProduct < 0  && abs(eta1)<2.4  && abs(eta2) < 2.4 && deltaR > 0.3  && pt1 > 20 && pt2 > 20 && p4.M()>20 && ht > 200 && 1.4<= TMath::Max(abs(eta1),abs(eta2)) && runNr < 201657 && !(runNr >= 198049 && runNr <= 198522))'
p9
sS'Denominator'
p10
F473.0
sS'Efficiency'
p11
F0.96828752642706128
sS'Nominator'
p12
F458.0
sS'UncertaintyDown'
p13
F0.010261646102917132
ssS'MuMu'
p14
(dp15
g7
F0.019721631772211312
sg8
g9
sg10
F170.0
sg11
F0.92941176470588238
sg12
F158.0
sg13
F0.025507591578195155
ssS'EMu'
p16
(dp17
g7
F0.024636751014871061
sg8
g9
sg10
F66.0
sg11
F0.95454545454545459
sg12
F63.0
sg13
F0.042244121823605041
ssss.