(dp0
S'Run92'
p1
(dp2
S'default'
p3
(dp4
S'EE'
p5
(dp6
S'UncertaintyUp'
p7
F0.0037620380366620854
sS'cut'
p8
S'weight*(chargeProduct < 0  && abs(eta1)<2.4  && abs(eta2) < 2.4 && deltaR > 0.3  && pt1 > 20 && pt2 > 20 && p4.M()>20 && ht > 200 && !((nJets >= 2 && met > 150) || (nJets >=3 && met > 100)) && ((abs(eta1) < 1.4 || abs(eta1) > 1.6) && (abs(eta2) < 1.4 || abs(eta2) > 1.6) ) && runNr < 201657 && !(runNr >= 198049 && runNr <= 198522))'
p9
sS'Denominator'
p10
F2030.0
sS'Efficiency'
p11
F0.9704433497536946
sS'Nominator'
p12
F1970.0
sS'UncertaintyDown'
p13
F0.004255810381572411
ssS'MuMu'
p14
(dp15
g7
F0.0038003243726417724
sg8
g9
sg10
F2769.0
sg11
F0.9584687612856627
sg12
F2654.0
sg13
F0.0041471878071394075
ssS'EMu'
p16
(dp17
g7
F0.007474364351499618
sg8
g9
sg10
F1161.0
sg11
F0.9310938845822567
sg12
F1081.0
sg13
F0.008259658722622354
ssss.