(dp0
S'Run92'
p1
(dp2
S'default'
p3
(dp4
S'EE'
p5
(dp6
S'UncertaintyUp'
p7
F0.009203147940093026
sS'cut'
p8
S'weight*(chargeProduct < 0  && abs(eta1)<2.4  && abs(eta2) < 2.4 && deltaR > 0.3  && pt1 > 20 && pt2 > 20 && p4.M()>20 && ht > 200 && 1.6<=TMath::Max(abs(eta1),abs(eta2)) && abs(eta1) < 2.4 && abs(eta2) < 2.4 && ((abs(eta1) < 1.4 || abs(eta1) > 1.6) && (abs(eta2) < 1.4 || abs(eta2) > 1.6) ) && runNr < 201657 && !(runNr >= 198049 && runNr <= 198522))'
p9
sS'Denominator'
p10
F368.0
sS'Efficiency'
p11
F0.967391304347826
sS'Nominator'
p12
F356.0
sS'UncertaintyDown'
p13
F0.012111212448236652
ssS'MuMu'
p14
(dp15
g7
F0.021218419828893942
sg8
g9
sg10
F101.0
sg11
F0.9504950495049505
sg12
F96.0
sg13
F0.03210158510256855
ssS'EMu'
p16
(dp17
g7
F0.036877025039681155
sg8
g9
sg10
F44.0
sg11
F0.9318181818181818
sg12
F41.0
sg13
F0.06190057088148215
ssss.