(dp0
S'Run2012A+B+C'
p1
(dp2
S'default'
p3
(dp4
S'EE'
p5
(dp6
S'UncertaintyUp'
p7
F0.0040414246219361294
sS'cut'
p8
S'weight*(chargeProduct < 0  && abs(eta1)<2.4  && abs(eta2) < 2.4 && deltaR > 0.3  && pt1 > 20 && pt2 > 20 && p4.M()>20 && ht > 200 && abs(eta1)<1.4  && abs(eta2) < 1.4 && runNr >= 190456 && runNr <=203755)'
p9
sS'Denominator'
p10
F1742.0
sS'Efficiency'
p11
F0.97072330654420202
sS'Nominator'
p12
F1691.0
sS'UncertaintyDown'
p13
F0.0046201427949373874
ssS'MuMu'
p14
(dp15
g7
F0.0065552130623052207
sg8
g9
sg10
F362.0
sg11
F0.98342541436464093
sg12
F356.0
sg13
F0.0097685093137177548
ssS'EMu'
p16
(dp17
g7
F0.016023114037167496
sg8
g9
sg10
F210.0
sg11
F0.94285714285714284
sg12
F198.0
sg13
F0.020852857241687617
ssss.