(dp0
S'Run92'
p1
(dp2
S'default'
p3
(dp4
S'EE'
p5
(dp6
S'UncertaintyUp'
p7
F0.0043912583023792973
sS'cut'
p8
S'weight*(chargeProduct < 0  && abs(eta1)<2.4  && abs(eta2) < 2.4 && deltaR > 0.3  && pt1 > 20 && pt2 > 20 && p4.M()>20 && ht > 200 && runNr < 201657 && !(runNr >= 198049 && runNr <= 198522))'
p9
sS'Denominator'
p10
F1384.0
sS'Efficiency'
p11
F0.9725433526011561
sS'Nominator'
p12
F1346.0
sS'UncertaintyDown'
p13
F0.0051300748266136509
ssS'MuMu'
p14
(dp15
g7
F0.004194669794297945
sg8
g9
sg10
F2003.0
sg11
F0.96355466799800304
sg12
F1930.0
sg13
F0.0046850251445090807
ssS'EMu'
p16
(dp17
g7
F0.0072257072461973104
sg8
g9
sg10
F1111.0
sg11
F0.93879387938793879
sg12
F1043.0
sg13
F0.0080646593613916684
ssss.