(dp0
S'Run2012A+B+C'
p1
(dp2
S'default'
p3
(dp4
S'EE'
p5
(dp6
S'UncertaintyUp'
p7
F0.0044256329433788322
sS'cut'
p8
S'weight*(chargeProduct < 0  && abs(eta1)<1.4  && abs(eta2) < 1.4 && deltaR > 0.3  && pt1 > 20 && pt2 > 20 && p4.M()>20 && ht > 200 && runNr >= 190456 && runNr <=203755)'
p9
sS'Denominator'
p10
F1391.0
sS'Efficiency'
p11
F0.9719626168224299
sS'Nominator'
p12
F1352.0
sS'UncertaintyDown'
p13
F0.0051591245184913204
ssS'MuMu'
p14
(dp15
g7
F0.0040684907259822545
sg8
g9
sg10
F1780.0
sg11
F0.96966292134831455
sg12
F1726.0
sg13
F0.0046325434665142051
ssS'EMu'
p16
(dp17
g7
F0.0063500862174165063
sg8
g9
sg10
F1112.0
sg11
F0.9532374100719424
sg12
F1060.0
sg13
F0.0072227718817371445
ssss.