(dp0
S'Run92'
p1
(dp2
S'default'
p3
(dp4
S'EE'
p5
(dp6
S'UncertaintyUp'
p7
F0.004493701486112722
sS'cut'
p8
S'weight*(chargeProduct < 0  && abs(eta1)<2.4  && abs(eta2) < 2.4 && deltaR > 0.3  && pt1 > 20 && pt2 > 20 && p4.M()>20 && ht > 200 && !((nJets >= 2 && met > 150) || (nJets >=3 && met > 100)) && abs(eta1)<1.4  && abs(eta2) < 1.4 && runNr < 201657 && !(runNr >= 198049 && runNr <= 198522))'
p9
sS'Denominator'
p10
F1534.0
sS'Efficiency'
p11
F0.9680573663624511
sS'Nominator'
p12
F1485.0
sS'UncertaintyDown'
p13
F0.005148073393425157
ssS'MuMu'
p14
(dp15
g7
F0.004247535787719081
sg8
g9
sg10
F1991.0
sg11
F0.9628327473631341
sg12
F1917.0
sg13
F0.004739899177257922
ssS'EMu'
p16
(dp17
g7
F0.007390804867746792
sg8
g9
sg10
F897.0
sg11
F0.9487179487179487
sg12
F851.0
sg13
F0.008466402353884184
ssss.