(dp0
S'Run92'
p1
(dp2
S'default'
p3
(dp4
S'EE'
p5
(dp6
S'UncertaintyUp'
p7
F0.0041316262984547603
sS'cut'
p8
S'weight*(chargeProduct < 0  && abs(eta1)<2.4  && abs(eta2) < 2.4 && deltaR > 0.3  && pt1 > 20 && pt2 > 20 && p4.M()>20 && ht > 200 && runNr < 201657 && !(runNr >= 198049 && runNr <= 198522))'
p9
sS'Denominator'
p10
F1831.0
sS'Efficiency'
p11
F0.96777717094483884
sS'Nominator'
p12
F1772.0
sS'UncertaintyDown'
p13
F0.0046762716117535463
ssS'MuMu'
p14
(dp15
g7
F0.0092088863592094672
sg8
g9
sg10
F451.0
sg11
F0.96008869179600886
sg12
F433.0
sg13
F0.011491700627579648
ssS'EMu'
p16
(dp17
g7
F0.013021375847493188
sg8
g9
sg10
F224.0
sg11
F0.9598214285714286
sg12
F215.0
sg13
F0.017810867686888443
ssss.