(dp0
S'Run92'
p1
(dp2
S'default'
p3
(dp4
S'EE'
p5
(dp6
S'UncertaintyUp'
p7
F0.008457472175609215
sS'cut'
p8
S'weight*(chargeProduct < 0  && abs(eta1)<2.4  && abs(eta2) < 2.4 && deltaR > 0.3  && pt1 > 20 && pt2 > 20 && p4.M()>20 && ht > 200 && !(nJets >= 2 && met > 100) && 1.6<=TMath::Max(abs(eta1),abs(eta2)) && abs(eta1) < 2.4 && abs(eta2) < 2.4 && ((abs(eta1) < 1.4 || abs(eta1) > 1.6) && (abs(eta2) < 1.4 || abs(eta2) > 1.6) ) && runNr < 201657 && !(runNr >= 198049 && runNr <= 198522))'
p9
sS'Denominator'
p10
F346.0
sS'Efficiency'
p11
F0.9739884393063584
sS'Nominator'
p12
F337.0
sS'UncertaintyDown'
p13
F0.011653801718863654
ssS'MuMu'
p14
(dp15
g7
F0.021386840210493085
sg8
g9
sg10
F89.0
sg11
F0.9550561797752809
sg12
F85.0
sg13
F0.03411063441254858
ssS'EMu'
p16
(dp17
g7
F0.0645799596341835
sg8
g9
sg10
F25.0
sg11
F0.88
sg12
F22.0
sg13
F0.1031146345322882
ssss.