(dp0
S'Run92'
p1
(dp2
S'default'
p3
(dp4
S'EE'
p5
(dp6
S'UncertaintyUp'
p7
F0.006547926231740275
sS'cut'
p8
S'weight*(chargeProduct < 0  && abs(eta1)<2.4  && abs(eta2) < 2.4 && deltaR > 0.3  && pt1 > 20 && pt2 > 20 && p4.M()>20 && ht > 200 && !((nJets >= 2 && met > 150) || (nJets >=3 && met > 100)) && 1.6<=TMath::Max(abs(eta1),abs(eta2)) && abs(eta1) < 2.4 && abs(eta2) < 2.4 && ((abs(eta1) < 1.4 || abs(eta1) > 1.6) && (abs(eta2) < 1.4 || abs(eta2) > 1.6) ) && runNr < 201657 && !(runNr >= 198049 && runNr <= 198522))'
p9
sS'Denominator'
p10
F496.0
sS'Efficiency'
p11
F0.9778225806451613
sS'Nominator'
p12
F485.0
sS'UncertaintyDown'
p13
F0.008765649893891059
ssS'MuMu'
p14
(dp15
g7
F0.00804009656049609
sg8
g9
sg10
F778.0
sg11
F0.9473007712082262
sg12
F737.0
sg13
F0.009281388685018155
ssS'EMu'
p16
(dp17
g7
F0.02096300342627122
sg8
g9
sg10
F264.0
sg11
F0.8712121212121212
sg12
F230.0
sg13
F0.024026410771581297
ssss.