(dp0
S'Run2012A+B+C'
p1
(dp2
S'default'
p3
(dp4
S'EE'
p5
(dp6
S'UncertaintyUp'
p7
F0.0034725868051891373
sS'cut'
p8
S'weight*(chargeProduct < 0  && abs(eta1)<2.4  && abs(eta2) < 2.4 && deltaR > 0.3  && pt1 > 20 && pt2 > 20 && p4.M()>20 && ht > 200 && runNr >= 190456 && runNr <=203755)'
p9
sS'Denominator'
p10
F2359.0
sS'Efficiency'
p11
F0.97075031793132682
sS'Nominator'
p12
F2290.0
sS'UncertaintyDown'
p13
F0.0038960171566090329
ssS'MuMu'
p14
(dp15
g7
F0.0076843119620106926
sg8
g9
sg10
F585.0
sg11
F0.96410256410256412
sg12
F564.0
sg13
F0.0094456857870812705
ssS'EMu'
p16
(dp17
g7
F0.01360444768320257
sg8
g9
sg10
F295.0
sg11
F0.94237288135593222
sg12
F278.0
sg13
F0.016971275155595378
ssss.