(dp0
S'Run2012A+B+C'
p1
(dp2
S'default'
p3
(dp4
S'EE'
p5
(dp6
S'UncertaintyUp'
p7
F0.0029284612962844347
sS'cut'
p8
S'weight*(chargeProduct < 0  && abs(eta1)<2.4  && abs(eta2) < 2.4 && deltaR > 0.3  && pt1 > 20 && pt2 > 20 && p4.M()>20 && runNr >= 190456 && runNr <=203755)'
p9
sS'Denominator'
p10
F3351.0
sS'Efficiency'
p11
F0.97045658012533575
sS'Nominator'
p12
F3252.0
sS'UncertaintyDown'
p13
F0.0032235422095213684
ssS'MuMu'
p14
(dp15
g7
F0.003592602357918695
sg8
g9
sg10
F2932.0
sg11
F0.96077762619372442
sg12
F2817.0
sg13
F0.00392181852030693
ssS'EMu'
p16
(dp17
g7
F0.0051491419406251016
sg8
g9
sg10
F2272.0
sg11
F0.93617957746478875
sg12
F2127.0
sg13
F0.0055494946657745903
ssss.