(dp0
S'Run2012A+B+C'
p1
(dp2
S'default'
p3
(dp4
S'EE'
p5
(dp6
S'UncertaintyUp'
p7
F0.0074360043768429973
sS'cut'
p8
S'weight*(chargeProduct < 0  && ((abs(eta1)<2.4 && abs(eta2) > 1.4) ||( abs(eta2) < 2.4 && abs(eta1) > 1.4)) && deltaR > 0.3  && pt1 > 20 && pt2 > 20 && p4.M()>20 && ht > 200 && runNr >= 190456 && runNr <=203755)'
p9
sS'Denominator'
p10
F544.0
sS'Efficiency'
p11
F0.96875
sS'Nominator'
p12
F527.0
sS'UncertaintyDown'
p13
F0.0093697242862950114
ssS'MuMu'
p14
(dp15
g7
F0.0069707983539547547
sg8
g9
sg10
F1030.0
sg11
F0.94757281553398054
sg12
F976.0
sg13
F0.0079001646628079625
ssS'EMu'
p16
(dp17
g7
F0.013748072083346163
sg8
g9
sg10
F443.0
sg11
F0.90970654627539504
sg12
F403.0
sg13
F0.0157484368767844
ssss.