(dp0
S'Run92'
p1
(dp2
S'default'
p3
(dp4
S'EE'
p5
(dp6
S'UncertaintyUp'
p7
F0.0050653201394177394
sS'cut'
p8
S'weight*(chargeProduct < 0  && abs(eta1)<1.4  && abs(eta2) < 1.4 && deltaR > 0.3  && pt1 > 20 && pt2 > 20 && p4.M()>20 && ht > 200 && runNr < 201657 && !(runNr >= 198049 && runNr <= 198522))'
p9
sS'Denominator'
p10
F1029.0
sS'Efficiency'
p11
F0.97278911564625847
sS'Nominator'
p12
F1001.0
sS'UncertaintyDown'
p13
F0.0060718524615334113
ssS'MuMu'
p14
(dp15
g7
F0.0046311763984390186
sg8
g9
sg10
F1259.0
sg11
F0.97220015885623512
sg12
F1224.0
sg13
F0.0054453240091296706
ssS'EMu'
p16
(dp17
g7
F0.0074540195062802184
sg8
g9
sg10
F799.0
sg11
F0.95369211514392993
sg12
F762.0
sg13
F0.0086844699322771168
ssss.