(dp0
S'Run92'
p1
(dp2
S'default'
p3
(dp4
S'EE'
p5
(dp6
S'UncertaintyUp'
p7
F0.00477721236817219
sS'cut'
p8
S'weight*(chargeProduct < 0  && abs(eta1)<2.4  && abs(eta2) < 2.4 && deltaR > 0.3  && pt1 > 20 && pt2 > 20 && p4.M()>20 && ht > 200  && abs(eta1)<1.4  && abs(eta2) < 1.4 && runNr < 201657 && !(runNr >= 198049 && runNr <= 198522))'
p9
sS'Denominator'
p10
F1367.0
sS'Efficiency'
p11
F0.9678127286027798
sS'Nominator'
p12
F1323.0
sS'UncertaintyDown'
p13
F0.005513863778475181
ssS'MuMu'
p14
(dp15
g7
F0.00837820701109615
sg8
g9
sg10
F283.0
sg11
F0.9787985865724381
sg12
F277.0
sg13
F0.01244860493203448
ssS'EMu'
p16
(dp17
g7
F0.014594376847822277
sg8
g9
sg10
F162.0
sg11
F0.9629629629629629
sg12
F156.0
sg13
F0.02146675526086217
ssss.