(dp0
S'Run92'
p1
(dp2
S'default'
p3
(dp4
S'EE'
p5
(dp6
S'UncertaintyUp'
p7
F0.00487279806179397
sS'cut'
p8
S'weight*(chargeProduct < 0  && abs(eta1)<2.4  && abs(eta2) < 2.4 && deltaR > 0.3  && pt1 > 20 && pt2 > 20 && p4.M()>20 && ht > 200 && !(nJets >= 2 && met > 100) && abs(eta1)<1.4  && abs(eta2) < 1.4 && runNr < 201657 && !(runNr >= 198049 && runNr <= 198522))'
p9
sS'Denominator'
p10
F1278.0
sS'Efficiency'
p11
F0.9687010954616588
sS'Nominator'
p12
F1238.0
sS'UncertaintyDown'
p13
F0.005664941760332942
ssS'MuMu'
p14
(dp15
g7
F0.009751249431570352
sg8
g9
sg10
F243.0
sg11
F0.9753086419753086
sg12
F237.0
sg13
F0.014456641554466021
ssS'EMu'
p16
(dp17
g7
F0.01828961815224628
sg8
g9
sg10
F89.0
sg11
F0.9662921348314607
sg12
F86.0
sg13
F0.03170318245305892
ssss.