(dp0
S'Run92'
p1
(dp2
S'default'
p3
(dp4
S'EE'
p5
(dp6
S'UncertaintyUp'
p7
F0.006669115644832635
sS'cut'
p8
S'weight*(chargeProduct < 0  && abs(eta1)<2.4  && abs(eta2) < 2.4 && deltaR > 0.3  && pt1 > 20 && pt2 > 20 && p4.M()>20 && ht > 200  && 1.6<=TMath::Max(abs(eta1),abs(eta2)) && abs(eta1) < 2.4 && abs(eta2) < 2.4 && ((abs(eta1) < 1.4 || abs(eta1) > 1.6) && (abs(eta2) < 1.4 || abs(eta2) > 1.6) ) && runNr < 201657 && !(runNr >= 198049 && runNr <= 198522))'
p9
sS'Denominator'
p10
F570.0
sS'Efficiency'
p11
F0.9736842105263158
sS'Nominator'
p12
F555.0
sS'UncertaintyDown'
p13
F0.008546798946792444
ssS'MuMu'
p14
(dp15
g7
F0.007965342404833042
sg8
g9
sg10
F831.0
sg11
F0.9446450060168472
sg12
F785.0
sg13
F0.009115934359882671
ssS'EMu'
p16
(dp17
g7
F0.015647117709835068
sg8
g9
sg10
F418.0
sg11
F0.8875598086124402
sg12
F371.0
sg13
F0.017642183714887905
ssss.