(dp0
S'Run92'
p1
(dp2
S'default'
p3
(dp4
S'EE'
p5
(dp6
S'UncertaintyUp'
p7
F0.008416065746708945
sS'cut'
p8
S'weight*(chargeProduct < 0  && ((abs(eta1)<2.4 && abs(eta2) > 1.4) ||( abs(eta2) < 2.4 && abs(eta1) > 1.4)) && deltaR > 0.3  && pt1 > 20 && pt2 > 20 && p4.M()>20 && ht > 200 && runNr < 201657 && !(runNr >= 198049 && runNr <= 198522))'
p9
sS'Denominator'
p10
F367.0
sS'Efficiency'
p11
F0.97275204359673029
sS'Nominator'
p12
F357.0
sS'UncertaintyDown'
p13
F0.011400143112527017
ssS'MuMu'
p14
(dp15
g7
F0.0080985400732858093
sg8
g9
sg10
F744.0
sg11
F0.94892473118279574
sg12
F706.0
sg13
F0.0094048886536863829
ssS'EMu'
p16
(dp17
g7
F0.016977688914837308
sg8
g9
sg10
F315.0
sg11
F0.9015873015873016
sg12
F284.0
sg13
F0.019763250155174772
ssss.