(dp0
S'Run2012A+B+C'
p1
(dp2
S'default'
p3
(dp4
S'EE'
p5
(dp6
S'UncertaintyUp'
p7
F0.0038429603861598327
sS'cut'
p8
S'weight*(chargeProduct < 0  && abs(eta1)<2.4  && abs(eta2) < 2.4 && deltaR > 0.3  && pt1 > 20 && pt2 > 20 && p4.M()>20 && ht > 200 && runNr >= 190456 && runNr <=203755)'
p9
sS'Denominator'
p10
F1920.0
sS'Efficiency'
p11
F0.97083333333333333
sS'Nominator'
p12
F1864.0
sS'UncertaintyDown'
p13
F0.0043665692517711463
ssS'MuMu'
p14
(dp15
g7
F0.0036339660571476085
sg8
g9
sg10
F2810.0
sg11
F0.96156583629893233
sg12
F2702.0
sg13
F0.003978553169226573
ssS'EMu'
p16
(dp17
g7
F0.006023354619865029
sg8
g9
sg10
F1551.0
sg11
F0.94068343004513222
sg12
F1459.0
sg13
F0.006621963538154918
ssss.