(dp0
S'Run2012A+B+C'
p1
(dp2
S'default'
p3
(dp4
S'EE'
p5
(dp6
S'UncertaintyUp'
p7
F0.0067531782387643124
sS'cut'
p8
S'weight*(chargeProduct < 0  && abs(eta1)<2.4  && abs(eta2) < 2.4 && deltaR > 0.3  && pt1 > 20 && pt2 > 20 && p4.M()>20 && ht > 200 && 1.4<= TMath::Max(abs(eta1),abs(eta2)) && runNr >= 190456 && runNr <=203755)'
p9
sS'Denominator'
p10
F617.0
sS'Efficiency'
p11
F0.97082658022690438
sS'Nominator'
p12
F599.0
sS'UncertaintyDown'
p13
F0.0084604343847687336
ssS'MuMu'
p14
(dp15
g7
F0.016846553894713345
sg8
g9
sg10
F223.0
sg11
F0.93273542600896864
sg12
F208.0
sg13
F0.021233946959873018
ssS'EMu'
p16
(dp17
g7
F0.025174767389409713
sg8
g9
sg10
F85.0
sg11
F0.94117647058823528
sg12
F80.0
sg13
F0.037834061423487886
ssss.