(dp0
S'Run92'
p1
(dp2
S'default'
p3
(dp4
S'EE'
p5
(dp6
S'UncertaintyUp'
p7
F0.004247515246749267
sS'cut'
p8
S'weight*(chargeProduct < 0  && abs(eta1)<2.4  && abs(eta2) < 2.4 && deltaR > 0.3  && pt1 > 20 && pt2 > 20 && p4.M()>20 && ht > 200 && !(nJets >= 2 && met > 100) && ((abs(eta1) < 1.4 || abs(eta1) > 1.6) && (abs(eta2) < 1.4 || abs(eta2) > 1.6) ) && runNr < 201657 && !(runNr >= 198049 && runNr <= 198522))'
p9
sS'Denominator'
p10
F1624.0
sS'Efficiency'
p11
F0.9698275862068966
sS'Nominator'
p12
F1575.0
sS'UncertaintyDown'
p13
F0.004867937005763157
ssS'MuMu'
p14
(dp15
g7
F0.009296879995512985
sg8
g9
sg10
F332.0
sg11
F0.9698795180722891
sg12
F322.0
sg13
F0.01257552153038699
ssS'EMu'
p16
(dp17
g7
F0.020680395089559545
sg8
g9
sg10
F114.0
sg11
F0.9473684210526315
sg12
F108.0
sg13
F0.030113577871701547
ssss.