(dp0
S'Run92'
p1
(dp2
S'default'
p3
(dp4
S'EE'
p5
(dp6
S'UncertaintyUp'
p7
F0.004247611721267197
sS'cut'
p8
S'weight*(chargeProduct < 0  && abs(eta1)<2.4  && abs(eta2) < 2.4 && deltaR > 0.3  && pt1 > 20 && pt2 > 20 && p4.M()>20 && ht > 200 && ((abs(eta1) < 1.4 || abs(eta1) > 1.6) && (abs(eta2) < 1.4 || abs(eta2) > 1.6) ) && runNr < 201657 && !(runNr >= 198049 && runNr <= 198522))'
p9
sS'Denominator'
p10
F1735.0
sS'Efficiency'
p11
F0.9677233429394813
sS'Nominator'
p12
F1679.0
sS'UncertaintyDown'
p13
F0.0048232621474696424
ssS'MuMu'
p14
(dp15
g7
F0.008444068933302407
sg8
g9
sg10
F384.0
sg11
F0.9713541666666666
sg12
F373.0
sg13
F0.011269950202743018
ssS'EMu'
p16
(dp17
g7
F0.01414766399011036
sg8
g9
sg10
F206.0
sg11
F0.9563106796116505
sg12
F197.0
sg13
F0.019315875131447724
ssss.