(dp0
S'Run2012A+B+C'
p1
(dp2
S'default'
p3
(dp4
S'EE'
p5
(dp6
S'UncertaintyUp'
p7
F0.0032971899930770432
sS'cut'
p8
S'weight*(chargeProduct < 0  && abs(eta1)<1.4  && abs(eta2) < 1.4 && deltaR > 0.3  && pt1 > 20 && pt2 > 20 && p4.M() >20  && runNr >= 190456 && runNr <=203755)'
p9
sS'Denominator'
p10
F2450.0
sS'Efficiency'
p11
F0.9726530612244898
sS'Nominator'
p12
F2383.0
sS'UncertaintyDown'
p13
F0.0037068719960653418
ssS'MuMu'
p14
(dp15
g7
F0.0040405949856185952
sg8
g9
sg10
F1857.0
sg11
F0.96876682821755522
sg12
F1799.0
sg13
F0.004579023923084069
ssS'EMu'
p16
(dp17
g7
F0.0055583916258646893
sg8
g9
sg10
F1611.0
sg11
F0.94785847299813786
sg12
F1527.0
sg13
F0.0061453745155466422
ssss.